target datalayout = "e-m:e-p270:32:32-p271:32:32-p272:64:64-i64:64-i128:128-f80:128-n8:16:32:64-S128"
target triple = "x86_64-unknown-linux-gnu"

%struct.QTailQLink = type { ptr, ptr }
%struct.BlockDriverState = type { i32, i8, i8, i8, i8, i8, ptr, ptr, ptr, %struct.anon.0, i8, [4096 x i8], [4096 x i8], [4096 x i8], [16 x i8], ptr, [4096 x i8], %struct.BlockLimits, i32, i32, i32, i32, [32 x i8], %union.anon, %union.anon.1, %union.anon.2, i32, [16 x %struct.anon.3], ptr, %struct.anon.4, ptr, ptr, %struct.anon.5, ptr, ptr, i32, ptr, i64, i64, %struct.QemuMutex, %struct.anon.6, %struct.Stat64, i32, i32, i32, i32, i32, i32, %struct.QemuMutex, %struct.anon.7, %struct.CoQueue, i8, i32, i8, %struct.CoMutex, ptr, ptr }
%struct.anon.0 = type { ptr }
%struct.BlockLimits = type { i32, i64, i32, i64, i32, i32, i32, i64, i32, i64, i64, i32, i8, i32, i32, i32, i32, i32, i32, i32 }
%union.anon = type { %struct.QTailQLink }
%union.anon.1 = type { %struct.QTailQLink }
%union.anon.2 = type { %struct.QTailQLink }
%struct.anon.3 = type { ptr }
%struct.anon.4 = type { ptr }
%struct.anon.5 = type { ptr }
%struct.anon.6 = type { ptr }
%struct.Stat64 = type { i64 }
%struct.QemuMutex = type { %union.pthread_mutex_t, i8 }
%union.pthread_mutex_t = type { %struct.__pthread_mutex_s }
%struct.__pthread_mutex_s = type { i32, i32, i32, i32, i32, i16, i16, %struct.__pthread_internal_list }
%struct.__pthread_internal_list = type { ptr, ptr }
%struct.anon.7 = type { ptr }
%struct.CoQueue = type { %struct.anon.8 }
%struct.anon.8 = type { ptr, ptr }
%struct.CoMutex = type { i32, ptr, %struct.anon.9, %struct.anon.9, i32, i32, ptr }
%struct.anon.9 = type { ptr }
%struct.BdrvChild = type { ptr, ptr, ptr, i32, ptr, i64, i64, i8, i8, %struct.anon.14, %struct.anon.15 }
%struct.anon.14 = type { ptr, ptr }
%struct.anon.15 = type { ptr, ptr }

@.str.12 = private unnamed_addr constant [25 x i8] c"../qemu/block/blkdebug.c\00", align 1
@.str.63 = private unnamed_addr constant [58 x i8] c"QEMU_IS_ALIGNED(offset | bytes, bs->bl.request_alignment)\00", align 1
@__PRETTY_FUNCTION__.blkdebug_co_block_status = private unnamed_addr constant [117 x i8] c"int blkdebug_co_block_status(BlockDriverState *, _Bool, int64_t, int64_t, int64_t *, int64_t *, BlockDriverState **)\00", align 1
@.str.64 = private unnamed_addr constant [25 x i8] c"bs->file && bs->file->bs\00", align 1

; Function Attrs: nounwind sspstrong uwtable
define internal i32 @blkdebug_co_block_status(ptr noundef %bs, i1 noundef zeroext %want_zero, i64 noundef %offset, i64 noundef %bytes, ptr noundef %pnum, ptr noundef %map, ptr noundef %file) #0 {
entry:
  %retval = alloca i32, align 4
  %bs.addr = alloca ptr, align 8
  %want_zero.addr = alloca i8, align 1
  %offset.addr = alloca i64, align 8
  %bytes.addr = alloca i64, align 8
  %pnum.addr = alloca ptr, align 8
  %map.addr = alloca ptr, align 8
  %file.addr = alloca ptr, align 8
  %err = alloca i32, align 4
  store ptr %bs, ptr %bs.addr, align 8
  %frombool = zext i1 %want_zero to i8
  store i8 %frombool, ptr %want_zero.addr, align 1
  store i64 %offset, ptr %offset.addr, align 8
  store i64 %bytes, ptr %bytes.addr, align 8
  store ptr %pnum, ptr %pnum.addr, align 8
  store ptr %map, ptr %map.addr, align 8
  store ptr %file, ptr %file.addr, align 8
  %0 = load i64, ptr %offset.addr, align 8
  %1 = load i64, ptr %bytes.addr, align 8
  %or = or i64 %0, %1
  %2 = load ptr, ptr %bs.addr, align 8
  %bl = getelementptr inbounds %struct.BlockDriverState, ptr %2, i32 0, i32 17
  %request_alignment = getelementptr inbounds %struct.BlockLimits, ptr %bl, i32 0, i32 0
  %3 = load i32, ptr %request_alignment, align 8
  %conv = zext i32 %3 to i64
  %rem = srem i64 %or, %conv
  %cmp = icmp eq i64 %rem, 0
  br i1 %cmp, label %if.then, label %if.else

if.then:                                          ; preds = %entry
  br label %if.end

if.else:                                          ; preds = %entry
  call void @__assert_fail(ptr noundef @.str.63, ptr noundef @.str.12, i32 noundef 760, ptr noundef @__PRETTY_FUNCTION__.blkdebug_co_block_status) #15
  unreachable

if.end:                                           ; preds = %if.then
  %4 = load ptr, ptr %bs.addr, align 8
  %5 = load i64, ptr %offset.addr, align 8
  %6 = load i64, ptr %bytes.addr, align 8
  %call = call i32 @rule_check(ptr noundef %4, i64 noundef %5, i64 noundef %6, i32 noundef 5)
  store i32 %call, ptr %err, align 4
  %7 = load i32, ptr %err, align 4
  %tobool = icmp ne i32 %7, 0
  br i1 %tobool, label %if.then2, label %if.end3

if.then2:                                         ; preds = %if.end
  %8 = load i32, ptr %err, align 4
  store i32 %8, ptr %retval, align 4
  br label %return

if.end3:                                          ; preds = %if.end
  %9 = load ptr, ptr %bs.addr, align 8
  %file4 = getelementptr inbounds %struct.BlockDriverState, ptr %9, i32 0, i32 31
  %10 = load ptr, ptr %file4, align 8
  %tobool5 = icmp ne ptr %10, null
  br i1 %tobool5, label %land.lhs.true, label %if.else10

land.lhs.true:                                    ; preds = %if.end3
  %11 = load ptr, ptr %bs.addr, align 8
  %file6 = getelementptr inbounds %struct.BlockDriverState, ptr %11, i32 0, i32 31
  %12 = load ptr, ptr %file6, align 8
  %bs7 = getelementptr inbounds %struct.BdrvChild, ptr %12, i32 0, i32 0
  %13 = load ptr, ptr %bs7, align 8
  %tobool8 = icmp ne ptr %13, null
  br i1 %tobool8, label %if.then9, label %if.else10

if.then9:                                         ; preds = %land.lhs.true
  br label %if.end11

if.else10:                                        ; preds = %land.lhs.true, %if.end3
  call void @__assert_fail(ptr noundef @.str.64, ptr noundef @.str.12, i32 noundef 767, ptr noundef @__PRETTY_FUNCTION__.blkdebug_co_block_status) #15
  unreachable

if.end11:                                         ; preds = %if.then9
  %14 = load i64, ptr %bytes.addr, align 8
  %15 = load ptr, ptr %pnum.addr, align 8
  store i64 %14, ptr %15, align 8
  %16 = load i64, ptr %offset.addr, align 8
  %17 = load ptr, ptr %map.addr, align 8
  store i64 %16, ptr %17, align 8
  %18 = load ptr, ptr %bs.addr, align 8
  %file12 = getelementptr inbounds %struct.BlockDriverState, ptr %18, i32 0, i32 31
  %19 = load ptr, ptr %file12, align 8
  %bs13 = getelementptr inbounds %struct.BdrvChild, ptr %19, i32 0, i32 0
  %20 = load ptr, ptr %bs13, align 8
  %21 = load ptr, ptr %file.addr, align 8
  store ptr %20, ptr %21, align 8
  store i32 12, ptr %retval, align 4
  br label %return

return:                                           ; preds = %if.end11, %if.then2
  %22 = load i32, ptr %retval, align 4
  ret i32 %22
}