; Function Attrs: nounwind sspstrong uwtable
define internal range(i32 1, 0) i32 @blkdebug_co_block_status(ptr noundef readonly captures(none) %bs, i1 zeroext %want_zero, i64 noundef %offset, i64 noundef %bytes, ptr noundef writeonly captures(none) %pnum, ptr noundef writeonly captures(none) %map, ptr noundef writeonly captures(none) %file) #0 {
entry:
  %or = or i64 %bytes, %offset
  %bl = getelementptr inbounds nuw i8, ptr %bs, i64 16464
  %0 = load i32, ptr %bl, align 8
  %conv = zext i32 %0 to i64
  %rem = srem i64 %or, %conv
  %cmp = icmp eq i64 %rem, 0
  br i1 %cmp, label %if.end, label %if.else

if.else:                                          ; preds = %entry
  tail call void @__assert_fail(ptr noundef nonnull @.str.63, ptr noundef nonnull @.str.12, i32 noundef 760, ptr noundef nonnull @__PRETTY_FUNCTION__.blkdebug_co_block_status) #17
  unreachable

if.end:                                           ; preds = %entry
  %call = tail call i32 @rule_check(ptr noundef nonnull %bs, i64 noundef %offset, i64 noundef %bytes, i32 noundef 5)
  %tobool.not = icmp eq i32 %call, 0
  br i1 %tobool.not, label %if.end3, label %return

if.end3:                                          ; preds = %if.end
  %file4 = getelementptr inbounds nuw i8, ptr %bs, i64 16840
  %1 = load ptr, ptr %file4, align 8
  %tobool5.not = icmp eq ptr %1, null
  br i1 %tobool5.not, label %if.else10, label %land.lhs.true

land.lhs.true:                                    ; preds = %if.end3
  %2 = load ptr, ptr %1, align 8
  %tobool8.not = icmp eq ptr %2, null
  br i1 %tobool8.not, label %if.else10, label %if.end11

if.else10:                                        ; preds = %land.lhs.true, %if.end3
  tail call void @__assert_fail(ptr noundef nonnull @.str.64, ptr noundef nonnull @.str.12, i32 noundef 767, ptr noundef nonnull @__PRETTY_FUNCTION__.blkdebug_co_block_status) #17
  unreachable

if.end11:                                         ; preds = %land.lhs.true
  store i64 %bytes, ptr %pnum, align 8
  store i64 %offset, ptr %map, align 8
  %3 = load ptr, ptr %file4, align 8
  %4 = load ptr, ptr %3, align 8
  store ptr %4, ptr %file, align 8
  br label %return

return:                                           ; preds = %if.end, %if.end11
  %retval.0 = phi i32 [ 12, %if.end11 ], [ %call, %if.end ]
  ret i32 %retval.0
}